target datalayout = "e-m:e-p270:32:32-p271:32:32-p272:64:64-i64:64-i128:128-f80:128-n8:16:32:64-S128"
target triple = "x86_64-pc-linux-gnu"

%struct.encryption_verifier_t = type { i32, [16 x i8], [16 x i8], i32, [32 x i8] }
%struct.encryption_key_t = type { [256 x i8], i32 }

@.str.49 = private unnamed_addr constant [51 x i8] c"ole2: Invalid encrypted verifier hash length 0x%x\0A\00", align 1
@.str.50 = private unnamed_addr constant [56 x i8] c"ole2: Unsupported AES key length in aes_128ecb_decrypt\0A\00", align 1
@.str.51 = private unnamed_addr constant [40 x i8] c"ole2: Unable to initialize decryption.\0A\00", align 1

; Function Attrs: nounwind uwtable
define internal zeroext i1 @aes_128ecb_decrypt(ptr noundef %0, i64 noundef %1, ptr noundef %2, ptr noundef %3) #0 {
  %5 = alloca ptr, align 8
  %6 = alloca i64, align 8
  %7 = alloca ptr, align 8
  %8 = alloca ptr, align 8
  %9 = alloca [44 x i32], align 16
  %10 = alloca i32, align 4
  %11 = alloca i64, align 8
  %12 = alloca i8, align 1
  store ptr %0, ptr %5, align 8
  store i64 %1, ptr %6, align 8
  store ptr %2, ptr %7, align 8
  store ptr %3, ptr %8, align 8
  store i8 0, ptr %12, align 1
  %13 = load ptr, ptr %8, align 8
  %14 = getelementptr inbounds %struct.encryption_key_t, ptr %13, i32 0, i32 1
  %15 = load i32, ptr %14, align 4
  %16 = icmp ne i32 128, %15
  br i1 %16, label %17, label %18

17:                                               ; preds = %4
  call void (ptr, ...) @cli_dbgmsg(ptr noundef @.str.50)
  br label %49

18:                                               ; preds = %4
  %19 = getelementptr inbounds [44 x i32], ptr %9, i64 0, i64 0
  %20 = load ptr, ptr %8, align 8
  %21 = getelementptr inbounds %struct.encryption_key_t, ptr %20, i32 0, i32 0
  %22 = getelementptr inbounds [256 x i8], ptr %21, i64 0, i64 0
  %23 = load ptr, ptr %8, align 8
  %24 = getelementptr inbounds %struct.encryption_key_t, ptr %23, i32 0, i32 1
  %25 = load i32, ptr %24, align 4
  %26 = call i32 @rijndaelSetupDecrypt(ptr noundef %19, ptr noundef %22, i32 noundef %25)
  store i32 %26, ptr %10, align 4
  %27 = load i32, ptr %10, align 4
  %28 = icmp ne i32 %27, 0
  br i1 %28, label %30, label %29

29:                                               ; preds = %18
  call void (ptr, ...) @cli_errmsg(ptr noundef @.str.51)
  br label %49

30:                                               ; preds = %18
  store i64 0, ptr %11, align 8
  br label %31

31:                                               ; preds = %44, %30
  %32 = load i64, ptr %11, align 8
  %33 = load i64, ptr %6, align 8
  %34 = icmp ult i64 %32, %33
  br i1 %34, label %35, label %47

35:                                               ; preds = %31
  %36 = getelementptr inbounds [44 x i32], ptr %9, i64 0, i64 0
  %37 = load i32, ptr %10, align 4
  %38 = load ptr, ptr %5, align 8
  %39 = load i64, ptr %11, align 8
  %40 = getelementptr inbounds i8, ptr %38, i64 %39
  %41 = load ptr, ptr %7, align 8
  %42 = load i64, ptr %11, align 8
  %43 = getelementptr inbounds i8, ptr %41, i64 %42
  call void @rijndaelDecrypt(ptr noundef %36, i32 noundef %37, ptr noundef %40, ptr noundef %43)
  br label %44

44:                                               ; preds = %35
  %45 = load i64, ptr %11, align 8
  %46 = add i64 %45, 16
  store i64 %46, ptr %11, align 8
  br label %31

47:                                               ; preds = %31
  br label %48

48:                                               ; preds = %47
  store i8 1, ptr %12, align 1
  br label %49

49:                                               ; preds = %48, %29, %17
  %50 = load i8, ptr %12, align 1
  %51 = trunc i8 %50 to i1
  ret i1 %51
}

; Function Attrs: nounwind uwtable
define internal zeroext i1 @verify_key_aes(ptr noundef %0, ptr noundef %1) #0 {
  %3 = alloca ptr, align 8
  %4 = alloca ptr, align 8
  %5 = alloca i8, align 1
  %6 = alloca [20 x i8], align 16
  %7 = alloca [32 x i8], align 16
  %8 = alloca i32, align 4
  store ptr %0, ptr %3, align 8
  store ptr %1, ptr %4, align 8
  store i8 0, ptr %5, align 1
  call void @llvm.memset.p0.i64(ptr align 16 %7, i8 0, i64 32, i1 false)
  store i32 0, ptr %8, align 4
  %9 = load ptr, ptr %4, align 8
  %10 = getelementptr inbounds %struct.encryption_verifier_t, ptr %9, i32 0, i32 3
  %11 = load i32, ptr %10, align 1
  store i32 %11, ptr %8, align 4
  %12 = load i32, ptr %8, align 4
  %13 = zext i32 %12 to i64
  %14 = icmp ugt i64 %13, 32
  br i1 %14, label %15, label %19

15:                                               ; preds = %2
  %16 = load ptr, ptr %4, align 8
  %17 = getelementptr inbounds %struct.encryption_verifier_t, ptr %16, i32 0, i32 3
  %18 = load i32, ptr %17, align 1
  call void (ptr, ...) @cli_dbgmsg(ptr noundef @.str.49, i32 noundef %18)
  store i32 32, ptr %8, align 4
  br label %19

19:                                               ; preds = %15, %2
  %20 = load ptr, ptr %3, align 8
  %21 = getelementptr inbounds %struct.encryption_key_t, ptr %20, i32 0, i32 1
  %22 = load i32, ptr %21, align 4
  switch i32 %22, label %47 [
    i32 128, label %23
    i32 192, label %45
    i32 256, label %46
  ]

23:                                               ; preds = %19
  %24 = load ptr, ptr %4, align 8
  %25 = getelementptr inbounds %struct.encryption_verifier_t, ptr %24, i32 0, i32 2
  %26 = getelementptr inbounds [16 x i8], ptr %25, i64 0, i64 0
  %27 = getelementptr inbounds [32 x i8], ptr %7, i64 0, i64 0
  %28 = load ptr, ptr %3, align 8
  %29 = call zeroext i1 @aes_128ecb_decrypt(ptr noundef %26, i64 noundef 16, ptr noundef %27, ptr noundef %28)
  br i1 %29, label %31, label %30

30:                                               ; preds = %23
  br label %54

31:                                               ; preds = %23
  %32 = getelementptr inbounds [32 x i8], ptr %7, i64 0, i64 0
  %33 = getelementptr inbounds [20 x i8], ptr %6, i64 0, i64 0
  %34 = call ptr @cl_sha1(ptr noundef %32, i64 noundef 16, ptr noundef %33, ptr noundef null)
  %35 = load ptr, ptr %4, align 8
  %36 = getelementptr inbounds %struct.encryption_verifier_t, ptr %35, i32 0, i32 4
  %37 = getelementptr inbounds [32 x i8], ptr %36, i64 0, i64 0
  %38 = load i32, ptr %8, align 4
  %39 = zext i32 %38 to i64
  %40 = getelementptr inbounds [32 x i8], ptr %7, i64 0, i64 0
  %41 = load ptr, ptr %3, align 8
  %42 = call zeroext i1 @aes_128ecb_decrypt(ptr noundef %37, i64 noundef %39, ptr noundef %40, ptr noundef %41)
  br i1 %42, label %44, label %43

43:                                               ; preds = %31
  br label %54

44:                                               ; preds = %31
  br label %48

45:                                               ; preds = %19
  br label %54

46:                                               ; preds = %19
  br label %54

47:                                               ; preds = %19
  br label %54

48:                                               ; preds = %44
  %49 = getelementptr inbounds [20 x i8], ptr %6, i64 0, i64 0
  %50 = getelementptr inbounds [32 x i8], ptr %7, i64 0, i64 0
  %51 = call i32 @memcmp(ptr noundef %49, ptr noundef %50, i64 noundef 20) #12
  %52 = icmp eq i32 0, %51
  %53 = zext i1 %52 to i8
  store i8 %53, ptr %5, align 1
  br label %54

54:                                               ; preds = %48, %47, %46, %45, %43, %30
  %55 = load i8, ptr %5, align 1
  %56 = trunc i8 %55 to i1
  ret i1 %56
}