; Function Attrs: nounwind uwtable
define internal fastcc zeroext i1 @verify_key_aes(ptr noundef %0, ptr noundef %1) unnamed_addr #2 {
  %3 = alloca [44 x i32], align 16
  %4 = alloca [44 x i32], align 16
  %5 = alloca [20 x i8], align 16
  %6 = alloca [32 x i8], align 16
  call void @llvm.memset.p0.i64(ptr noundef nonnull align 16 dereferenceable(32) %6, i8 0, i64 32, i1 false)
  %7 = getelementptr inbounds i8, ptr %1, i64 36
  %8 = load i32, ptr %7, align 1
  %9 = icmp ugt i32 %8, 32
  br i1 %9, label %10, label %11

10:                                               ; preds = %2
  tail call void (ptr, ...) @cli_dbgmsg(ptr noundef nonnull @.str.49, i32 noundef %8) #21
  br label %11

11:                                               ; preds = %10, %2
  %.0 = phi i32 [ 32, %10 ], [ %8, %2 ]
  %12 = getelementptr inbounds i8, ptr %0, i64 256
  %13 = load i32, ptr %12, align 4
  %cond = icmp eq i32 %13, 128
  br i1 %cond, label %14, label %31

14:                                               ; preds = %11
  call void @llvm.lifetime.start.p0(i64 176, ptr nonnull %4)
  %15 = call i32 @rijndaelSetupDecrypt(ptr noundef nonnull %4, ptr noundef nonnull %0, i32 noundef 128) #21
  %.not15.i = icmp eq i32 %15, 0
  br i1 %.not15.i, label %aes_128ecb_decrypt.exit, label %16

aes_128ecb_decrypt.exit:                          ; preds = %14
  call void (ptr, ...) @cli_errmsg(ptr noundef nonnull @.str.51) #21
  call void @llvm.lifetime.end.p0(i64 176, ptr nonnull %4)
  br label %31

16:                                               ; preds = %14
  %17 = getelementptr inbounds i8, ptr %1, i64 20
  call void @rijndaelDecrypt(ptr noundef nonnull %4, i32 noundef %15, ptr noundef nonnull %17, ptr noundef nonnull %6) #21
  call void @llvm.lifetime.end.p0(i64 176, ptr nonnull %4)
  %18 = call ptr @cl_sha1(ptr noundef nonnull %6, i64 noundef 16, ptr noundef nonnull %5, ptr noundef null) #21
  %19 = getelementptr inbounds i8, ptr %1, i64 40
  %20 = zext nneg i32 %.0 to i64
  call void @llvm.lifetime.start.p0(i64 176, ptr nonnull %3)
  %21 = load i32, ptr %12, align 4
  %.not.i10 = icmp eq i32 %21, 128
  br i1 %.not.i10, label %23, label %22

22:                                               ; preds = %16
  call void (ptr, ...) @cli_dbgmsg(ptr noundef nonnull @.str.50) #21
  br label %aes_128ecb_decrypt.exit14

23:                                               ; preds = %16
  %24 = call i32 @rijndaelSetupDecrypt(ptr noundef nonnull %3, ptr noundef nonnull %0, i32 noundef 128) #21
  %.not15.i12 = icmp eq i32 %24, 0
  br i1 %.not15.i12, label %25, label %.preheader.i13

.preheader.i13:                                   ; preds = %23
  %.not17.i = icmp eq i32 %.0, 0
  br i1 %.not17.i, label %.loopexit, label %.lr.ph.i

25:                                               ; preds = %23
  call void (ptr, ...) @cli_errmsg(ptr noundef nonnull @.str.51) #21
  br label %aes_128ecb_decrypt.exit14

.lr.ph.i:                                         ; preds = %.preheader.i13, %.lr.ph.i
  %.01216.i = phi i64 [ %28, %.lr.ph.i ], [ 0, %.preheader.i13 ]
  %26 = getelementptr inbounds i8, ptr %19, i64 %.01216.i
  %27 = getelementptr inbounds i8, ptr %6, i64 %.01216.i
  call void @rijndaelDecrypt(ptr noundef nonnull %3, i32 noundef %24, ptr noundef nonnull %26, ptr noundef nonnull %27) #21
  %28 = add nuw nsw i64 %.01216.i, 16
  %29 = icmp ult i64 %28, %20
  br i1 %29, label %.lr.ph.i, label %.loopexit

aes_128ecb_decrypt.exit14:                        ; preds = %22, %25
  call void @llvm.lifetime.end.p0(i64 176, ptr nonnull %3)
  br label %31

.loopexit:                                        ; preds = %.lr.ph.i, %.preheader.i13
  call void @llvm.lifetime.end.p0(i64 176, ptr nonnull %3)
  %bcmp = call i32 @bcmp(ptr noundef nonnull dereferenceable(20) %5, ptr noundef nonnull dereferenceable(20) %6, i64 20)
  %30 = icmp eq i32 %bcmp, 0
  br label %31

31:                                               ; preds = %aes_128ecb_decrypt.exit14, %aes_128ecb_decrypt.exit, %11, %.loopexit
  %.09 = phi i1 [ %30, %.loopexit ], [ false, %aes_128ecb_decrypt.exit14 ], [ false, %aes_128ecb_decrypt.exit ], [ false, %11 ]
  ret i1 %.09
}